target datalayout = "e-m:e-p270:32:32-p271:32:32-p272:64:64-i64:64-i128:128-f80:128-n8:16:32:64-S128"
target triple = "x86_64-pc-linux-gnu"

%class.csr_t = type <{ ptr, ptr, ptr, i64, i32, i8, [3 x i8] }>
%class.processor_t = type { %class.abstract_device_t, i8, i32, %class.isa_parser_t, ptr, ptr, ptr, %"class.std::unordered_map", ptr, %struct.state_t, i32, i32, i8, i8, ptr, %"class.std::basic_ostream", i8, i8, i8, %"class.std::vector.82", %"class.std::bitset", %"class.std::bitset", %"class.std::bitset", %"class.std::vector.86", %"class.std::vector.86", %"class.std::unordered_map.91", [4095 x %class.opcode_cache_entry_t], i64, i64, i64, %class.entropy_source, i64, i64, %class.vectorUnit_t, %"class.triggers::module_t" }
%class.abstract_device_t = type { ptr }
%class.isa_parser_t = type { i32, i64, i64, i64, i8, i8, %"class.std::bitset", %"class.std::__cxx11::basic_string", %"class.std::set" }
%"class.std::__cxx11::basic_string" = type { %"struct.std::__cxx11::basic_string<char>::_Alloc_hider", i64, %union.anon }
%"struct.std::__cxx11::basic_string<char>::_Alloc_hider" = type { ptr }
%union.anon = type { i64, [8 x i8] }
%"class.std::set" = type { %"class.std::_Rb_tree" }
%"class.std::_Rb_tree" = type { %"struct.std::_Rb_tree<std::__cxx11::basic_string<char>, std::__cxx11::basic_string<char>, std::_Identity<std::__cxx11::basic_string<char>>, std::less<std::__cxx11::basic_string<char>>>::_Rb_tree_impl" }
%"struct.std::_Rb_tree<std::__cxx11::basic_string<char>, std::__cxx11::basic_string<char>, std::_Identity<std::__cxx11::basic_string<char>>, std::less<std::__cxx11::basic_string<char>>>::_Rb_tree_impl" = type { [8 x i8], %"struct.std::_Rb_tree_header" }
%"struct.std::_Rb_tree_header" = type { %"struct.std::_Rb_tree_node_base", i64 }
%"struct.std::_Rb_tree_node_base" = type { i32, ptr, ptr, ptr }
%"class.std::unordered_map" = type { %"class.std::_Hashtable" }
%"class.std::_Hashtable" = type { ptr, i64, %"struct.std::__detail::_Hash_node_base", i64, %"struct.std::__detail::_Prime_rehash_policy", ptr }
%"struct.std::__detail::_Hash_node_base" = type { ptr }
%"struct.std::__detail::_Prime_rehash_policy" = type { float, i64 }
%struct.state_t = type <{ i64, %class.regfile_t, %class.regfile_t.8, %"class.std::unordered_map.9", i64, i64, i8, i8, i8, i8, [4 x i8], %"class.std::shared_ptr", %"class.std::shared_ptr.29", %"class.std::shared_ptr.32", %"class.std::shared_ptr.32", %"class.std::shared_ptr.32", %"class.std::shared_ptr.32", %"class.std::shared_ptr.32", %"class.std::shared_ptr.35", %"class.std::shared_ptr.35", %"class.std::shared_ptr.38", %"class.std::shared_ptr.41", %"class.std::shared_ptr.32", %"class.std::shared_ptr.32", %"class.std::shared_ptr.32", %"class.std::shared_ptr.32", [29 x %"class.std::shared_ptr.32"], %"class.std::shared_ptr.32", %"class.std::shared_ptr.32", %"class.std::shared_ptr.32", %"class.std::shared_ptr.32", %"class.std::shared_ptr.32", %"class.std::shared_ptr.32", %"class.std::shared_ptr.44", %"class.std::shared_ptr.32", %"class.std::shared_ptr.32", %"class.std::shared_ptr.32", %"class.std::shared_ptr.32", %"class.std::shared_ptr.32", %"class.std::shared_ptr.47", %"class.std::shared_ptr.32", %"class.std::shared_ptr.32", %"class.std::shared_ptr.32", %"class.std::shared_ptr.32", %"class.std::shared_ptr.32", %"class.std::shared_ptr.32", %"class.std::shared_ptr.32", %"class.std::shared_ptr.32", %"class.std::shared_ptr.32", %"class.std::shared_ptr.50", %"class.std::shared_ptr.53", %"class.std::shared_ptr.56", %"class.std::shared_ptr.32", %"class.std::shared_ptr.32", %"class.std::shared_ptr.32", %"class.std::shared_ptr.32", %"class.std::shared_ptr.32", %"class.std::shared_ptr.32", %"class.std::shared_ptr.59", %"class.std::shared_ptr.32", %"class.std::shared_ptr.32", %"class.std::shared_ptr.32", %"class.std::shared_ptr.32", %"class.std::shared_ptr.32", %"class.std::shared_ptr.32", i8, [7 x i8], %"class.std::shared_ptr.62", [64 x %"class.std::shared_ptr.65"], %"class.std::shared_ptr.68", %"class.std::shared_ptr.68", %"class.std::shared_ptr.32", %"class.std::shared_ptr.32", %"class.std::shared_ptr.32", [4 x %"class.std::shared_ptr.32"], [4 x %"class.std::shared_ptr.32"], [4 x %"class.std::shared_ptr.32"], %"class.std::shared_ptr.32", %"class.std::shared_ptr.71", %"class.std::shared_ptr.32", %"class.std::shared_ptr.32", %"class.std::shared_ptr.32", %"class.std::shared_ptr.32", i8, [3 x i8], i32, %"class.std::map", %"class.std::vector", %"class.std::vector", i64, i32, i32, i32, i8, [3 x i8] }>
%class.regfile_t = type { [32 x i64] }
%class.regfile_t.8 = type { [32 x %struct.float128_t] }
%struct.float128_t = type { [2 x i64] }
%"class.std::unordered_map.9" = type { %"class.std::_Hashtable.10" }
%"class.std::_Hashtable.10" = type { ptr, i64, %"struct.std::__detail::_Hash_node_base", i64, %"struct.std::__detail::_Prime_rehash_policy", ptr }
%"class.std::shared_ptr" = type { %"class.std::__shared_ptr" }
%"class.std::__shared_ptr" = type { ptr, %"class.std::__shared_count" }
%"class.std::__shared_count" = type { ptr }
%"class.std::shared_ptr.29" = type { %"class.std::__shared_ptr.30" }
%"class.std::__shared_ptr.30" = type { ptr, %"class.std::__shared_count" }
%"class.std::shared_ptr.35" = type { %"class.std::__shared_ptr.36" }
%"class.std::__shared_ptr.36" = type { ptr, %"class.std::__shared_count" }
%"class.std::shared_ptr.38" = type { %"class.std::__shared_ptr.39" }
%"class.std::__shared_ptr.39" = type { ptr, %"class.std::__shared_count" }
%"class.std::shared_ptr.41" = type { %"class.std::__shared_ptr.42" }
%"class.std::__shared_ptr.42" = type { ptr, %"class.std::__shared_count" }
%"class.std::shared_ptr.44" = type { %"class.std::__shared_ptr.45" }
%"class.std::__shared_ptr.45" = type { ptr, %"class.std::__shared_count" }
%"class.std::shared_ptr.47" = type { %"class.std::__shared_ptr.48" }
%"class.std::__shared_ptr.48" = type { ptr, %"class.std::__shared_count" }
%"class.std::shared_ptr.50" = type { %"class.std::__shared_ptr.51" }
%"class.std::__shared_ptr.51" = type { ptr, %"class.std::__shared_count" }
%"class.std::shared_ptr.53" = type { %"class.std::__shared_ptr.54" }
%"class.std::__shared_ptr.54" = type { ptr, %"class.std::__shared_count" }
%"class.std::shared_ptr.56" = type { %"class.std::__shared_ptr.57" }
%"class.std::__shared_ptr.57" = type { ptr, %"class.std::__shared_count" }
%"class.std::shared_ptr.59" = type { %"class.std::__shared_ptr.60" }
%"class.std::__shared_ptr.60" = type { ptr, %"class.std::__shared_count" }
%"class.std::shared_ptr.62" = type { %"class.std::__shared_ptr.63" }
%"class.std::__shared_ptr.63" = type { ptr, %"class.std::__shared_count" }
%"class.std::shared_ptr.65" = type { %"class.std::__shared_ptr.66" }
%"class.std::__shared_ptr.66" = type { ptr, %"class.std::__shared_count" }
%"class.std::shared_ptr.68" = type { %"class.std::__shared_ptr.69" }
%"class.std::__shared_ptr.69" = type { ptr, %"class.std::__shared_count" }
%"class.std::shared_ptr.71" = type { %"class.std::__shared_ptr.72" }
%"class.std::__shared_ptr.72" = type { ptr, %"class.std::__shared_count" }
%"class.std::shared_ptr.32" = type { %"class.std::__shared_ptr.33" }
%"class.std::__shared_ptr.33" = type { ptr, %"class.std::__shared_count" }
%"class.std::map" = type { %"class.std::_Rb_tree.74" }
%"class.std::_Rb_tree.74" = type { %"struct.std::_Rb_tree<unsigned long, std::pair<const unsigned long, float128_t>, std::_Select1st<std::pair<const unsigned long, float128_t>>, std::less<unsigned long>>::_Rb_tree_impl" }
%"struct.std::_Rb_tree<unsigned long, std::pair<const unsigned long, float128_t>, std::_Select1st<std::pair<const unsigned long, float128_t>>, std::less<unsigned long>>::_Rb_tree_impl" = type { [8 x i8], %"struct.std::_Rb_tree_header" }
%"class.std::vector" = type { %"struct.std::_Vector_base" }
%"struct.std::_Vector_base" = type { %"struct.std::_Vector_base<std::tuple<unsigned long, unsigned long, unsigned char>, std::allocator<std::tuple<unsigned long, unsigned long, unsigned char>>>::_Vector_impl" }
%"struct.std::_Vector_base<std::tuple<unsigned long, unsigned long, unsigned char>, std::allocator<std::tuple<unsigned long, unsigned long, unsigned char>>>::_Vector_impl" = type { %"struct.std::_Vector_base<std::tuple<unsigned long, unsigned long, unsigned char>, std::allocator<std::tuple<unsigned long, unsigned long, unsigned char>>>::_Vector_impl_data" }
%"struct.std::_Vector_base<std::tuple<unsigned long, unsigned long, unsigned char>, std::allocator<std::tuple<unsigned long, unsigned long, unsigned char>>>::_Vector_impl_data" = type { ptr, ptr, ptr }
%"class.std::basic_ostream" = type { ptr, %"class.std::basic_ios" }
%"class.std::basic_ios" = type { %"class.std::ios_base", ptr, i8, i8, ptr, ptr, ptr, ptr }
%"class.std::ios_base" = type { ptr, i64, i64, i32, i32, i32, ptr, %"struct.std::ios_base::_Words", [8 x %"struct.std::ios_base::_Words"], i32, ptr, %"class.std::locale" }
%"struct.std::ios_base::_Words" = type { ptr, i64 }
%"class.std::locale" = type { ptr }
%"class.std::vector.82" = type { %"struct.std::_Bvector_base" }
%"struct.std::_Bvector_base" = type { %"struct.std::_Bvector_base<std::allocator<bool>>::_Bvector_impl" }
%"struct.std::_Bvector_base<std::allocator<bool>>::_Bvector_impl" = type { %"struct.std::_Bvector_base<std::allocator<bool>>::_Bvector_impl_data" }
%"struct.std::_Bvector_base<std::allocator<bool>>::_Bvector_impl_data" = type { %"struct.std::_Bit_iterator", %"struct.std::_Bit_iterator", ptr }
%"struct.std::_Bit_iterator" = type { %"struct.std::_Bit_iterator_base.base", [4 x i8] }
%"struct.std::_Bit_iterator_base.base" = type <{ ptr, i32 }>
%"class.std::bitset" = type { %"struct.std::_Base_bitset" }
%"struct.std::_Base_bitset" = type { [3 x i64] }
%"class.std::vector.86" = type { %"struct.std::_Vector_base.87" }
%"struct.std::_Vector_base.87" = type { %"struct.std::_Vector_base<insn_desc_t, std::allocator<insn_desc_t>>::_Vector_impl" }
%"struct.std::_Vector_base<insn_desc_t, std::allocator<insn_desc_t>>::_Vector_impl" = type { %"struct.std::_Vector_base<insn_desc_t, std::allocator<insn_desc_t>>::_Vector_impl_data" }
%"struct.std::_Vector_base<insn_desc_t, std::allocator<insn_desc_t>>::_Vector_impl_data" = type { ptr, ptr, ptr }
%"class.std::unordered_map.91" = type { %"class.std::_Hashtable.92" }
%"class.std::_Hashtable.92" = type { ptr, i64, %"struct.std::__detail::_Hash_node_base", i64, %"struct.std::__detail::_Prime_rehash_policy", ptr }
%class.opcode_cache_entry_t = type { [4 x i64], [4 x ptr] }
%class.entropy_source = type { %"class.std::__cxx11::basic_string" }
%class.vectorUnit_t = type <{ ptr, ptr, [32 x i8], i32, [4 x i8], i64, i64, %"class.std::shared_ptr.32", %"class.std::shared_ptr.105", %"class.std::shared_ptr.105", %"class.std::shared_ptr.105", %"class.std::shared_ptr.105", i64, i64, i64, float, [4 x i8], i64, i64, i8, i8, [6 x i8] }>
%"class.std::shared_ptr.105" = type { %"class.std::__shared_ptr.106" }
%"class.std::__shared_ptr.106" = type { ptr, %"class.std::__shared_count" }
%"class.triggers::module_t" = type { ptr, %"class.std::vector.108" }
%"class.std::vector.108" = type { %"struct.std::_Vector_base.109" }
%"struct.std::_Vector_base.109" = type { %"struct.std::_Vector_base<triggers::trigger_t *, std::allocator<triggers::trigger_t *>>::_Vector_impl" }
%"struct.std::_Vector_base<triggers::trigger_t *, std::allocator<triggers::trigger_t *>>::_Vector_impl" = type { %"struct.std::_Vector_base<triggers::trigger_t *, std::allocator<triggers::trigger_t *>>::_Vector_impl_data" }
%"struct.std::_Vector_base<triggers::trigger_t *, std::allocator<triggers::trigger_t *>>::_Vector_impl_data" = type { ptr, ptr, ptr }
%class.basic_csr_t = type { %class.csr_t.base, i64 }
%class.csr_t.base = type <{ ptr, ptr, ptr, i64, i32, i8 }>
%class.masked_csr_t = type { %class.basic_csr_t, i64 }

; Function Attrs: mustprogress nounwind uwtable
define noundef zeroext i1 @_ZN11basic_csr_t14unlogged_writeEm(ptr noundef nonnull align 8 dereferenceable(48) %0, i64 noundef %1) unnamed_addr #5 align 2 {
  %3 = alloca ptr, align 8
  %4 = alloca i64, align 8
  store ptr %0, ptr %3, align 8, !tbaa !166
  store i64 %1, ptr %4, align 8, !tbaa !10
  %5 = load ptr, ptr %3, align 8
  %6 = load i64, ptr %4, align 8, !tbaa !10
  %7 = getelementptr inbounds nuw %class.basic_csr_t, ptr %5, i32 0, i32 1
  store i64 %6, ptr %7, align 8, !tbaa !168
  ret i1 true
}

; Function Attrs: mustprogress nounwind uwtable
define linkonce_odr noundef ptr @_ZNKSt12__shared_ptrI5csr_tLN9__gnu_cxx12_Lock_policyE2EE3getEv(ptr noundef nonnull align 8 dereferenceable(16) %0) #5 comdat align 2 {
  %2 = alloca ptr, align 8
  store ptr %0, ptr %2, align 8, !tbaa !246
  %3 = load ptr, ptr %2, align 8
  %4 = getelementptr inbounds nuw %"class.std::__shared_ptr.33", ptr %3, i32 0, i32 0
  %5 = load ptr, ptr %4, align 8, !tbaa !258
  ret ptr %5
}

; Function Attrs: mustprogress nounwind uwtable
define noundef zeroext i1 @_ZN12masked_csr_t14unlogged_writeEm(ptr noundef nonnull align 8 dereferenceable(56) %0, i64 noundef %1) unnamed_addr #5 align 2 {
  %3 = alloca ptr, align 8
  %4 = alloca i64, align 8
  store ptr %0, ptr %3, align 8, !tbaa !298
  store i64 %1, ptr %4, align 8, !tbaa !10
  %5 = load ptr, ptr %3, align 8
  %6 = load ptr, ptr %5, align 8, !tbaa !12
  %7 = getelementptr inbounds ptr, ptr %6, i64 1
  %8 = load ptr, ptr %7, align 8
  %9 = call noundef i64 %8(ptr noundef nonnull align 8 dereferenceable(48) %5) #3
  %10 = getelementptr inbounds nuw %class.masked_csr_t, ptr %5, i32 0, i32 1
  %11 = load i64, ptr %10, align 8, !tbaa !300
  %12 = xor i64 %11, -1
  %13 = and i64 %9, %12
  %14 = load i64, ptr %4, align 8, !tbaa !10
  %15 = getelementptr inbounds nuw %class.masked_csr_t, ptr %5, i32 0, i32 1
  %16 = load i64, ptr %15, align 8, !tbaa !300
  %17 = and i64 %14, %16
  %18 = or i64 %13, %17
  %19 = call noundef zeroext i1 @_ZN11basic_csr_t14unlogged_writeEm(ptr noundef nonnull align 8 dereferenceable(48) %5, i64 noundef %18) #3
  ret i1 %19
}

; Function Attrs: mustprogress nounwind uwtable
define linkonce_odr noundef ptr @_ZN11processor_t7get_mmuEv(ptr noundef nonnull align 8 dereferenceable(266872) %0) #5 comdat align 2 {
  %2 = alloca ptr, align 8
  store ptr %0, ptr %2, align 8, !tbaa !8
  %3 = load ptr, ptr %2, align 8
  %4 = getelementptr inbounds nuw %class.processor_t, ptr %3, i32 0, i32 6
  %5 = load ptr, ptr %4, align 8, !tbaa !182
  ret ptr %5
}

; Function Attrs: mustprogress nounwind uwtable
define linkonce_odr noundef ptr @_ZNKSt19__shared_ptr_accessI5csr_tLN9__gnu_cxx12_Lock_policyE2ELb0ELb0EE6_M_getEv(ptr noundef nonnull align 1 dereferenceable(1) %0) #5 comdat align 2 {
  %2 = alloca ptr, align 8
  store ptr %0, ptr %2, align 8, !tbaa !200
  %3 = load ptr, ptr %2, align 8
  %4 = call noundef ptr @_ZNKSt12__shared_ptrI5csr_tLN9__gnu_cxx12_Lock_policyE2EE3getEv(ptr noundef nonnull align 8 dereferenceable(16) %3) #3
  ret ptr %4
}

; Function Attrs: mustprogress nounwind uwtable
define noundef zeroext i1 @_ZN12envcfg_csr_t14unlogged_writeEm(ptr noundef nonnull align 8 dereferenceable(56) %0, i64 noundef %1) unnamed_addr #5 align 2 personality ptr @__gxx_personality_v0 {
  %3 = alloca ptr, align 8
  %4 = alloca i64, align 8
  %5 = alloca i64, align 8
  %6 = alloca i64, align 8
  %7 = alloca i64, align 8
  %8 = alloca i64, align 8
  store ptr %0, ptr %3, align 8, !tbaa !302
  store i64 %1, ptr %4, align 8, !tbaa !10
  %9 = load ptr, ptr %3, align 8
  call void @llvm.lifetime.start.p0(i64 8, ptr %5) #3
  store i64 2, ptr %5, align 8, !tbaa !10
  call void @llvm.lifetime.start.p0(i64 8, ptr %6) #3
  %10 = load i64, ptr %4, align 8, !tbaa !10
  %11 = and i64 %10, 48
  %12 = udiv i64 %11, 16
  %13 = icmp ne i64 %12, 2
  br i1 %13, label %14, label %16

14:                                               ; preds = %2
  %15 = load i64, ptr %4, align 8, !tbaa !10
  br label %20

16:                                               ; preds = %2
  %17 = load i64, ptr %4, align 8, !tbaa !10
  %18 = and i64 %17, -49
  %19 = or i64 %18, 0
  br label %20

20:                                               ; preds = %16, %14
  %21 = phi i64 [ %15, %14 ], [ %19, %16 ]
  store i64 %21, ptr %6, align 8, !tbaa !10
  call void @llvm.lifetime.start.p0(i64 8, ptr %7) #3
  store i64 1, ptr %7, align 8, !tbaa !10
  call void @llvm.lifetime.start.p0(i64 8, ptr %8) #3
  %22 = load i64, ptr %6, align 8, !tbaa !10
  %23 = and i64 %22, 12884901888
  %24 = udiv i64 %23, 4294967296
  store i64 %24, ptr %8, align 8, !tbaa !10
  %25 = load i64, ptr %6, align 8, !tbaa !10
  %26 = and i64 %25, -12884901889
  %27 = load i64, ptr %8, align 8, !tbaa !10
  %28 = icmp ne i64 %27, 1
  br i1 %28, label %29, label %31

29:                                               ; preds = %20
  %30 = load i64, ptr %8, align 8, !tbaa !10
  br label %32

31:                                               ; preds = %20
  br label %32

32:                                               ; preds = %31, %29
  %33 = phi i64 [ %30, %29 ], [ 0, %31 ]
  %34 = mul i64 %33, 4294967296
  %35 = and i64 %34, 12884901888
  %36 = or i64 %26, %35
  store i64 %36, ptr %6, align 8, !tbaa !10
  %37 = load i64, ptr %6, align 8, !tbaa !10
  %38 = and i64 %37, 12884901888
  %39 = udiv i64 %38, 4294967296
  %40 = load ptr, ptr %9, align 8, !tbaa !12
  %41 = getelementptr inbounds ptr, ptr %40, i64 1
  %42 = load ptr, ptr %41, align 8
  %43 = call noundef i64 %42(ptr noundef nonnull align 8 dereferenceable(48) %9) #3
  %44 = and i64 %43, 12884901888
  %45 = udiv i64 %44, 4294967296
  %46 = icmp ne i64 %39, %45
  br i1 %46, label %47, label %53

47:                                               ; preds = %32
  %48 = getelementptr inbounds nuw %class.csr_t, ptr %9, i32 0, i32 1
  %49 = load ptr, ptr %48, align 8, !tbaa !14
  %50 = invoke noundef ptr @_ZN11processor_t7get_mmuEv(ptr noundef nonnull align 8 dereferenceable(266872) %49)
          to label %51 unwind label %56

51:                                               ; preds = %47
  invoke void @_ZN5mmu_t9flush_tlbEv(ptr noundef nonnull align 8 dereferenceable(43168) %50)
          to label %52 unwind label %56

52:                                               ; preds = %51
  br label %53

53:                                               ; preds = %52, %32
  %54 = load i64, ptr %6, align 8, !tbaa !10
  %55 = call noundef zeroext i1 @_ZN12masked_csr_t14unlogged_writeEm(ptr noundef nonnull align 8 dereferenceable(56) %9, i64 noundef %54) #3
  call void @llvm.lifetime.end.p0(i64 8, ptr %8) #3
  call void @llvm.lifetime.end.p0(i64 8, ptr %7) #3
  call void @llvm.lifetime.end.p0(i64 8, ptr %6) #3
  call void @llvm.lifetime.end.p0(i64 8, ptr %5) #3
  ret i1 %55

56:                                               ; preds = %51, %47
  %57 = landingpad { ptr, i32 }
          catch ptr null
  %58 = extractvalue { ptr, i32 } %57, 0
  call void @__clang_call_terminate(ptr %58) #23
  unreachable
}

; Function Attrs: mustprogress nounwind uwtable
define linkonce_odr noundef i64 @_ZNK11basic_csr_t4readEv(ptr noundef nonnull align 8 dereferenceable(48) %0) unnamed_addr #5 comdat align 2 {
  %2 = alloca ptr, align 8
  store ptr %0, ptr %2, align 8, !tbaa !166
  %3 = load ptr, ptr %2, align 8
  %4 = getelementptr inbounds nuw %class.basic_csr_t, ptr %3, i32 0, i32 1
  %5 = load i64, ptr %4, align 8, !tbaa !168
  ret i64 %5
}

; Function Attrs: mustprogress nounwind uwtable
define linkonce_odr noundef ptr @_ZNKSt19__shared_ptr_accessI5csr_tLN9__gnu_cxx12_Lock_policyE2ELb0ELb0EEptEv(ptr noundef nonnull align 1 dereferenceable(1) %0) #5 comdat align 2 {
  %2 = alloca ptr, align 8
  store ptr %0, ptr %2, align 8, !tbaa !200
  %3 = load ptr, ptr %2, align 8
  %4 = call noundef ptr @_ZNKSt19__shared_ptr_accessI5csr_tLN9__gnu_cxx12_Lock_policyE2ELb0ELb0EE6_M_getEv(ptr noundef nonnull align 1 dereferenceable(1) %3) #3
  ret ptr %4
}

; Function Attrs: mustprogress nounwind uwtable
define noundef zeroext i1 @_ZN13senvcfg_csr_t14unlogged_writeEm(ptr noundef nonnull align 8 dereferenceable(56) %0, i64 noundef %1) unnamed_addr #5 align 2 {
  %3 = alloca ptr, align 8
  %4 = alloca i64, align 8
  %5 = alloca i64, align 8
  %6 = alloca i64, align 8
  store ptr %0, ptr %3, align 8, !tbaa !407
  store i64 %1, ptr %4, align 8, !tbaa !10
  %7 = load ptr, ptr %3, align 8
  call void @llvm.lifetime.start.p0(i64 8, ptr %5) #3
  %8 = getelementptr inbounds nuw %class.csr_t, ptr %7, i32 0, i32 2
  %9 = load ptr, ptr %8, align 8, !tbaa !19
  %10 = getelementptr inbounds nuw %struct.state_t, ptr %9, i32 0, i32 8
  %11 = load i8, ptr %10, align 2, !tbaa !97, !range !98, !noundef !99
  %12 = trunc i8 %11 to i1
  br i1 %12, label %13, label %22

13:                                               ; preds = %2
  %14 = getelementptr inbounds nuw %class.csr_t, ptr %7, i32 0, i32 2
  %15 = load ptr, ptr %14, align 8, !tbaa !19
  %16 = getelementptr inbounds nuw %struct.state_t, ptr %15, i32 0, i32 73
  %17 = call noundef ptr @_ZNKSt19__shared_ptr_accessI5csr_tLN9__gnu_cxx12_Lock_policyE2ELb0ELb0EEptEv(ptr noundef nonnull align 1 dereferenceable(1) %16) #3
  %18 = load ptr, ptr %17, align 8, !tbaa !12
  %19 = getelementptr inbounds ptr, ptr %18, i64 1
  %20 = load ptr, ptr %19, align 8
  %21 = call noundef i64 %20(ptr noundef nonnull align 8 dereferenceable(37) %17) #3
  br label %31

22:                                               ; preds = %2
  %23 = getelementptr inbounds nuw %class.csr_t, ptr %7, i32 0, i32 2
  %24 = load ptr, ptr %23, align 8, !tbaa !19
  %25 = getelementptr inbounds nuw %struct.state_t, ptr %24, i32 0, i32 71
  %26 = call noundef ptr @_ZNKSt19__shared_ptr_accessI5csr_tLN9__gnu_cxx12_Lock_policyE2ELb0ELb0EEptEv(ptr noundef nonnull align 1 dereferenceable(1) %25) #3
  %27 = load ptr, ptr %26, align 8, !tbaa !12
  %28 = getelementptr inbounds ptr, ptr %27, i64 1
  %29 = load ptr, ptr %28, align 8
  %30 = call noundef i64 %29(ptr noundef nonnull align 8 dereferenceable(37) %26) #3
  br label %31

31:                                               ; preds = %22, %13
  %32 = phi i64 [ %21, %13 ], [ %30, %22 ]
  store i64 %32, ptr %5, align 8, !tbaa !10
  call void @llvm.lifetime.start.p0(i64 8, ptr %6) #3
  %33 = load i64, ptr %5, align 8, !tbaa !10
  %34 = or i64 %33, -9
  store i64 %34, ptr %6, align 8, !tbaa !10
  %35 = call noundef i64 @_ZNK11basic_csr_t4readEv(ptr noundef nonnull align 8 dereferenceable(48) %7) #3
  %36 = load i64, ptr %6, align 8, !tbaa !10
  %37 = xor i64 %36, -1
  %38 = and i64 %35, %37
  %39 = load i64, ptr %4, align 8, !tbaa !10
  %40 = load i64, ptr %6, align 8, !tbaa !10
  %41 = and i64 %39, %40
  %42 = or i64 %38, %41
  %43 = call noundef zeroext i1 @_ZN12envcfg_csr_t14unlogged_writeEm(ptr noundef nonnull align 8 dereferenceable(56) %7, i64 noundef %42) #3
  call void @llvm.lifetime.end.p0(i64 8, ptr %6) #3
  call void @llvm.lifetime.end.p0(i64 8, ptr %5) #3
  ret i1 %43
}