; Function Attrs: mustprogress nounwind uwtable
define noundef zeroext i1 @_ZN13senvcfg_csr_t14unlogged_writeEm(ptr noundef nonnull align 8 dereferenceable(56) %0, i64 noundef %1) unnamed_addr #7 align 2 personality ptr @__gxx_personality_v0 {
  %3 = getelementptr inbounds nuw i8, ptr %0, i64 16
  %4 = load ptr, ptr %3, align 8, !tbaa !15
  %5 = getelementptr inbounds nuw i8, ptr %4, i64 850
  %6 = load i8, ptr %5, align 2, !tbaa !93, !range !94, !noundef !95
  %7 = trunc nuw i8 %6 to i1
  %. = select i1 %7, i64 3280, i64 3248
  %8 = getelementptr inbounds nuw i8, ptr %4, i64 %.
  %9 = load ptr, ptr %8, align 8, !tbaa !176
  %10 = load ptr, ptr %9, align 8, !tbaa !3
  %11 = getelementptr inbounds nuw i8, ptr %10, i64 8
  %12 = load ptr, ptr %11, align 8
  %13 = tail call noundef i64 %12(ptr noundef nonnull align 8 dereferenceable(37) %9) #30
  %14 = or i64 %13, -9
  %15 = getelementptr inbounds nuw i8, ptr %0, i64 40
  %16 = load i64, ptr %15, align 8, !tbaa !159
  %17 = xor i64 %14, -1
  %18 = and i64 %16, %17
  %19 = and i64 %14, %1
  %20 = or disjoint i64 %18, %19
  %21 = and i64 %1, 48
  %.not.i = icmp eq i64 %21, 32
  %22 = and i64 %20, -49
  %23 = select i1 %.not.i, i64 %22, i64 %20
  %24 = lshr i64 %23, 32
  %25 = and i64 %24, 3
  %.not9.i = icmp eq i64 %25, 1
  %26 = shl nuw nsw i64 %25, 32
  %27 = select i1 %.not9.i, i64 0, i64 %26
  %28 = lshr exact i64 %27, 32
  %29 = load ptr, ptr %0, align 8, !tbaa !3
  %30 = getelementptr inbounds nuw i8, ptr %29, i64 8
  %31 = load ptr, ptr %30, align 8
  %32 = tail call noundef i64 %31(ptr noundef nonnull align 8 dereferenceable(56) %0) #30
  %33 = lshr i64 %32, 32
  %34 = and i64 %33, 3
  %.not10.i = icmp eq i64 %28, %34
  br i1 %.not10.i, label %_ZN12envcfg_csr_t14unlogged_writeEm.exit, label %35

35:                                               ; preds = %2
  %36 = getelementptr inbounds nuw i8, ptr %0, i64 8
  %37 = load ptr, ptr %36, align 8, !tbaa !6
  %38 = getelementptr inbounds nuw i8, ptr %37, i64 176
  %39 = load ptr, ptr %38, align 8, !tbaa !171
  invoke void @_ZN5mmu_t9flush_tlbEv(ptr noundef nonnull align 8 dereferenceable(43168) %39)
          to label %_ZN12envcfg_csr_t14unlogged_writeEm.exit unwind label %40

40:                                               ; preds = %35
  %41 = landingpad { ptr, i32 }
          catch ptr null
  %42 = extractvalue { ptr, i32 } %41, 0
  tail call void @__clang_call_terminate(ptr %42) #32
  unreachable

_ZN12envcfg_csr_t14unlogged_writeEm.exit:         ; preds = %2, %35
  %43 = and i64 %23, -12884901889
  %44 = or disjoint i64 %27, %43
  %45 = load ptr, ptr %0, align 8, !tbaa !3
  %46 = getelementptr inbounds nuw i8, ptr %45, i64 8
  %47 = load ptr, ptr %46, align 8
  %48 = tail call noundef i64 %47(ptr noundef nonnull align 8 dereferenceable(56) %0) #30
  %49 = getelementptr inbounds nuw i8, ptr %0, i64 48
  %50 = load i64, ptr %49, align 8, !tbaa !228
  %51 = xor i64 %50, -1
  %52 = and i64 %48, %51
  %53 = and i64 %50, %44
  %54 = or i64 %52, %53
  store i64 %54, ptr %15, align 8, !tbaa !159
  ret i1 true
}